; Function Attrs: mustprogress nofree norecurse nosync nounwind willreturn memory(argmem: readwrite) uwtable
define dso_local void @_ZN4base11BinaryValueC2ESt10unique_ptrIA_cSt14default_deleteIS2_EEm(ptr nocapture noundef nonnull writeonly align 8 dereferenceable(32) %this, ptr nocapture noundef %buffer, i64 noundef %size) unnamed_addr #7 align 2 {
entry:
  %type_.i = getelementptr inbounds i8, ptr %this, i64 8
  store i32 5, ptr %type_.i, align 8
  store ptr getelementptr inbounds ({ [17 x ptr] }, ptr @_ZTVN4base11BinaryValueE, i64 0, i32 0, i64 2), ptr %this, align 8
  %buffer_ = getelementptr inbounds i8, ptr %this, i64 16
  %0 = load i64, ptr %buffer, align 8
  store i64 %0, ptr %buffer_, align 8
  store ptr null, ptr %buffer, align 8
  %size_ = getelementptr inbounds i8, ptr %this, i64 24
  store i64 %size, ptr %size_, align 8
  ret void
}